
3X8E_PMC_SystemClock.elf:     file format elf32-littlearm

Sections:
Idx Name          Size      VMA       LMA       File off  Algn
  0 .text         00000434  00080000  00080000  00010000  2**2
                  CONTENTS, ALLOC, LOAD, READONLY, CODE
  1 .relocate     00000434  20000000  00080434  00020000  2**3
                  CONTENTS, ALLOC, LOAD, DATA
  2 .bss          00000040  20000434  00080868  00020434  2**2
                  ALLOC
  3 .stack        00000404  20000474  000808a8  00020434  2**0
                  ALLOC
  4 .heap         00000200  20000878  00080cac  00020434  2**0
                  ALLOC
  5 .ARM.attributes 00000029  00000000  00000000  00020434  2**0
                  CONTENTS, READONLY
  6 .comment      00000059  00000000  00000000  0002045d  2**0
                  CONTENTS, READONLY
  7 .debug_info   00000f0d  00000000  00000000  000204b6  2**0
                  CONTENTS, READONLY, DEBUGGING
  8 .debug_abbrev 0000034b  00000000  00000000  000213c3  2**0
                  CONTENTS, READONLY, DEBUGGING
  9 .debug_loc    0000008b  00000000  00000000  0002170e  2**0
                  CONTENTS, READONLY, DEBUGGING
 10 .debug_aranges 00000080  00000000  00000000  00021799  2**0
                  CONTENTS, READONLY, DEBUGGING
 11 .debug_ranges 00000050  00000000  00000000  00021819  2**0
                  CONTENTS, READONLY, DEBUGGING
 12 .debug_macro  0001027e  00000000  00000000  00021869  2**0
                  CONTENTS, READONLY, DEBUGGING
 13 .debug_line   000015f3  00000000  00000000  00031ae7  2**0
                  CONTENTS, READONLY, DEBUGGING
 14 .debug_str    00050612  00000000  00000000  000330da  2**0
                  CONTENTS, READONLY, DEBUGGING
 15 .debug_frame  00000270  00000000  00000000  000836ec  2**2
                  CONTENTS, READONLY, DEBUGGING

Disassembly of section .text:

00080000 <exception_table>:
   80000:	78 08 00 20 65 01 08 00 61 01 08 00 61 01 08 00     x.. e...a...a...
   80010:	61 01 08 00 61 01 08 00 61 01 08 00 00 00 00 00     a...a...a.......
	...
   8002c:	61 01 08 00 61 01 08 00 00 00 00 00 61 01 08 00     a...a.......a...
   8003c:	61 01 08 00 61 01 08 00 61 01 08 00 61 01 08 00     a...a...a...a...
   8004c:	61 01 08 00 61 01 08 00 61 01 08 00 61 01 08 00     a...a...a...a...
   8005c:	61 01 08 00 61 01 08 00 61 01 08 00 00 00 00 00     a...a...a.......
   8006c:	61 01 08 00 61 01 08 00 61 01 08 00 61 01 08 00     a...a...a...a...
	...
   80084:	61 01 08 00 61 01 08 00 61 01 08 00 61 01 08 00     a...a...a...a...
   80094:	61 01 08 00 61 01 08 00 61 01 08 00 61 01 08 00     a...a...a...a...
   800a4:	00 00 00 00 61 01 08 00 61 01 08 00 61 01 08 00     ....a...a...a...
   800b4:	61 01 08 00 61 01 08 00 61 01 08 00 61 01 08 00     a...a...a...a...
   800c4:	61 01 08 00 61 01 08 00 61 01 08 00 61 01 08 00     a...a...a...a...
   800d4:	61 01 08 00 61 01 08 00 61 01 08 00 61 01 08 00     a...a...a...a...
   800e4:	61 01 08 00 61 01 08 00 61 01 08 00 61 01 08 00     a...a...a...a...

000800f4 <__do_global_dtors_aux>:
   800f4:	b510      	push	{r4, lr}
   800f6:	4c05      	ldr	r4, [pc, #20]	; (8010c <__do_global_dtors_aux+0x18>)
   800f8:	7823      	ldrb	r3, [r4, #0]
   800fa:	b933      	cbnz	r3, 8010a <__do_global_dtors_aux+0x16>
   800fc:	4b04      	ldr	r3, [pc, #16]	; (80110 <__do_global_dtors_aux+0x1c>)
   800fe:	b113      	cbz	r3, 80106 <__do_global_dtors_aux+0x12>
   80100:	4804      	ldr	r0, [pc, #16]	; (80114 <__do_global_dtors_aux+0x20>)
   80102:	f3af 8000 	nop.w
   80106:	2301      	movs	r3, #1
   80108:	7023      	strb	r3, [r4, #0]
   8010a:	bd10      	pop	{r4, pc}
   8010c:	20000434 	.word	0x20000434
   80110:	00000000 	.word	0x00000000
   80114:	00080434 	.word	0x00080434

00080118 <frame_dummy>:
   80118:	4b0c      	ldr	r3, [pc, #48]	; (8014c <frame_dummy+0x34>)
   8011a:	b143      	cbz	r3, 8012e <frame_dummy+0x16>
   8011c:	480c      	ldr	r0, [pc, #48]	; (80150 <frame_dummy+0x38>)
   8011e:	b510      	push	{r4, lr}
   80120:	490c      	ldr	r1, [pc, #48]	; (80154 <frame_dummy+0x3c>)
   80122:	f3af 8000 	nop.w
   80126:	480c      	ldr	r0, [pc, #48]	; (80158 <frame_dummy+0x40>)
   80128:	6803      	ldr	r3, [r0, #0]
   8012a:	b923      	cbnz	r3, 80136 <frame_dummy+0x1e>
   8012c:	bd10      	pop	{r4, pc}
   8012e:	480a      	ldr	r0, [pc, #40]	; (80158 <frame_dummy+0x40>)
   80130:	6803      	ldr	r3, [r0, #0]
   80132:	b933      	cbnz	r3, 80142 <frame_dummy+0x2a>
   80134:	4770      	bx	lr
   80136:	4b09      	ldr	r3, [pc, #36]	; (8015c <frame_dummy+0x44>)
   80138:	2b00      	cmp	r3, #0
   8013a:	d0f7      	beq.n	8012c <frame_dummy+0x14>
   8013c:	e8bd 4010 	ldmia.w	sp!, {r4, lr}
   80140:	4718      	bx	r3
   80142:	4b06      	ldr	r3, [pc, #24]	; (8015c <frame_dummy+0x44>)
   80144:	2b00      	cmp	r3, #0
   80146:	d0f5      	beq.n	80134 <frame_dummy+0x1c>
   80148:	4718      	bx	r3
   8014a:	bf00      	nop
   8014c:	00000000 	.word	0x00000000
   80150:	00080434 	.word	0x00080434
   80154:	20000438 	.word	0x20000438
   80158:	00080434 	.word	0x00080434
   8015c:	00000000 	.word	0x00000000

00080160 <Dummy_Handler>:

/**
 * \brief Default interrupt handler for unused IRQs.
 */
void Dummy_Handler(void)
{
   80160:	e7fe      	b.n	80160 <Dummy_Handler>
	...

00080164 <Reset_Handler>:
{
   80164:	b508      	push	{r3, lr}
        if (pSrc != pDest) {
   80166:	4b18      	ldr	r3, [pc, #96]	; (801c8 <Reset_Handler+0x64>)
   80168:	4a18      	ldr	r2, [pc, #96]	; (801cc <Reset_Handler+0x68>)
   8016a:	429a      	cmp	r2, r3
   8016c:	d010      	beq.n	80190 <Reset_Handler+0x2c>
                for (; pDest < &_erelocate;) {
   8016e:	4b18      	ldr	r3, [pc, #96]	; (801d0 <Reset_Handler+0x6c>)
   80170:	4a15      	ldr	r2, [pc, #84]	; (801c8 <Reset_Handler+0x64>)
   80172:	429a      	cmp	r2, r3
   80174:	d20c      	bcs.n	80190 <Reset_Handler+0x2c>
   80176:	3b01      	subs	r3, #1
   80178:	1a9b      	subs	r3, r3, r2
   8017a:	f023 0303 	bic.w	r3, r3, #3
   8017e:	3304      	adds	r3, #4
   80180:	4413      	add	r3, r2
   80182:	4912      	ldr	r1, [pc, #72]	; (801cc <Reset_Handler+0x68>)
                        *pDest++ = *pSrc++;
   80184:	f851 0b04 	ldr.w	r0, [r1], #4
   80188:	f842 0b04 	str.w	r0, [r2], #4
                for (; pDest < &_erelocate;) {
   8018c:	429a      	cmp	r2, r3
   8018e:	d1f9      	bne.n	80184 <Reset_Handler+0x20>
        for (pDest = &_szero; pDest < &_ezero;) {
   80190:	4b10      	ldr	r3, [pc, #64]	; (801d4 <Reset_Handler+0x70>)
   80192:	4a11      	ldr	r2, [pc, #68]	; (801d8 <Reset_Handler+0x74>)
   80194:	429a      	cmp	r2, r3
   80196:	d20a      	bcs.n	801ae <Reset_Handler+0x4a>
   80198:	3b01      	subs	r3, #1
   8019a:	1a9b      	subs	r3, r3, r2
   8019c:	f023 0303 	bic.w	r3, r3, #3
   801a0:	3304      	adds	r3, #4
   801a2:	4413      	add	r3, r2
                *pDest++ = 0;
   801a4:	2100      	movs	r1, #0
   801a6:	f842 1b04 	str.w	r1, [r2], #4
        for (pDest = &_szero; pDest < &_ezero;) {
   801aa:	4293      	cmp	r3, r2
   801ac:	d1fb      	bne.n	801a6 <Reset_Handler+0x42>
        SCB->VTOR = ((uint32_t) pSrc & SCB_VTOR_TBLOFF_Msk);
   801ae:	4b0b      	ldr	r3, [pc, #44]	; (801dc <Reset_Handler+0x78>)
   801b0:	f023 4360 	bic.w	r3, r3, #3758096384	; 0xe0000000
   801b4:	f023 037f 	bic.w	r3, r3, #127	; 0x7f
   801b8:	4a09      	ldr	r2, [pc, #36]	; (801e0 <Reset_Handler+0x7c>)
   801ba:	6093      	str	r3, [r2, #8]
        __libc_init_array();
   801bc:	4b09      	ldr	r3, [pc, #36]	; (801e4 <Reset_Handler+0x80>)
   801be:	4798      	blx	r3
        main();
   801c0:	4b09      	ldr	r3, [pc, #36]	; (801e8 <Reset_Handler+0x84>)
   801c2:	4798      	blx	r3
   801c4:	e7fe      	b.n	801c4 <Reset_Handler+0x60>
   801c6:	bf00      	nop
   801c8:	20000000 	.word	0x20000000
   801cc:	00080434 	.word	0x00080434
   801d0:	20000434 	.word	0x20000434
   801d4:	20000474 	.word	0x20000474
   801d8:	20000434 	.word	0x20000434
   801dc:	00080000 	.word	0x00080000
   801e0:	e000ed00 	.word	0xe000ed00
   801e4:	0008029d 	.word	0x0008029d
   801e8:	00080291 	.word	0x00080291

000801ec <SystemInit>:
 * Initialize the System and update the SystemFrequency variable.
 */
void SystemInit( void )
{
  /* Set FWS according to SYS_BOARD_MCKR configuration */
  EFC0->EEFC_FMR = EEFC_FMR_FWS(4);
   801ec:	f44f 6380 	mov.w	r3, #1024	; 0x400
   801f0:	4a20      	ldr	r2, [pc, #128]	; (80274 <SystemInit+0x88>)
   801f2:	6013      	str	r3, [r2, #0]
  EFC1->EEFC_FMR = EEFC_FMR_FWS(4);
   801f4:	f502 7200 	add.w	r2, r2, #512	; 0x200
   801f8:	6013      	str	r3, [r2, #0]

  /* Initialize main oscillator */
  if ( !(PMC->CKGR_MOR & CKGR_MOR_MOSCSEL) )
   801fa:	4b1f      	ldr	r3, [pc, #124]	; (80278 <SystemInit+0x8c>)
   801fc:	6a1b      	ldr	r3, [r3, #32]
   801fe:	f013 7f80 	tst.w	r3, #16777216	; 0x1000000
   80202:	d107      	bne.n	80214 <SystemInit+0x28>
  {
    PMC->CKGR_MOR = CKGR_MOR_KEY_PASSWD | SYS_BOARD_OSCOUNT | CKGR_MOR_MOSCRCEN | CKGR_MOR_MOSCXTEN;
   80204:	4a1d      	ldr	r2, [pc, #116]	; (8027c <SystemInit+0x90>)
   80206:	4b1c      	ldr	r3, [pc, #112]	; (80278 <SystemInit+0x8c>)
   80208:	621a      	str	r2, [r3, #32]
    while ( !(PMC->PMC_SR & PMC_SR_MOSCXTS) )
   8020a:	461a      	mov	r2, r3
   8020c:	6e93      	ldr	r3, [r2, #104]	; 0x68
   8020e:	f013 0f01 	tst.w	r3, #1
   80212:	d0fb      	beq.n	8020c <SystemInit+0x20>
    {
    }
  }

  /* Switch to 3-20MHz Xtal oscillator */
  PMC->CKGR_MOR = CKGR_MOR_KEY_PASSWD | SYS_BOARD_OSCOUNT | CKGR_MOR_MOSCRCEN | CKGR_MOR_MOSCXTEN | CKGR_MOR_MOSCSEL;
   80214:	4a1a      	ldr	r2, [pc, #104]	; (80280 <SystemInit+0x94>)
   80216:	4b18      	ldr	r3, [pc, #96]	; (80278 <SystemInit+0x8c>)
   80218:	621a      	str	r2, [r3, #32]

  while ( !(PMC->PMC_SR & PMC_SR_MOSCSELS) )
   8021a:	461a      	mov	r2, r3
   8021c:	6e93      	ldr	r3, [r2, #104]	; 0x68
   8021e:	f413 3f80 	tst.w	r3, #65536	; 0x10000
   80222:	d0fb      	beq.n	8021c <SystemInit+0x30>
  {
  }
 	PMC->PMC_MCKR = (PMC->PMC_MCKR & ~(uint32_t)PMC_MCKR_CSS_Msk) | PMC_MCKR_CSS_MAIN_CLK;
   80224:	4a14      	ldr	r2, [pc, #80]	; (80278 <SystemInit+0x8c>)
   80226:	6b13      	ldr	r3, [r2, #48]	; 0x30
   80228:	f023 0303 	bic.w	r3, r3, #3
   8022c:	f043 0301 	orr.w	r3, r3, #1
   80230:	6313      	str	r3, [r2, #48]	; 0x30
  while (!(PMC->PMC_SR & PMC_SR_MCKRDY))
   80232:	6e93      	ldr	r3, [r2, #104]	; 0x68
   80234:	f013 0f08 	tst.w	r3, #8
   80238:	d0fb      	beq.n	80232 <SystemInit+0x46>
  {
  }

  /* Initialize PLLA */
  PMC->CKGR_PLLAR = SYS_BOARD_PLLAR;
   8023a:	4a12      	ldr	r2, [pc, #72]	; (80284 <SystemInit+0x98>)
   8023c:	4b0e      	ldr	r3, [pc, #56]	; (80278 <SystemInit+0x8c>)
   8023e:	629a      	str	r2, [r3, #40]	; 0x28
  while ( !(PMC->PMC_SR & PMC_SR_LOCKA) )
   80240:	461a      	mov	r2, r3
   80242:	6e93      	ldr	r3, [r2, #104]	; 0x68
   80244:	f013 0f02 	tst.w	r3, #2
   80248:	d0fb      	beq.n	80242 <SystemInit+0x56>
  {
  }

  /* Switch to main clock */
  PMC->PMC_MCKR = (SYS_BOARD_MCKR & ~PMC_MCKR_CSS_Msk) | PMC_MCKR_CSS_MAIN_CLK;
   8024a:	2211      	movs	r2, #17
   8024c:	4b0a      	ldr	r3, [pc, #40]	; (80278 <SystemInit+0x8c>)
   8024e:	631a      	str	r2, [r3, #48]	; 0x30
  while ( !(PMC->PMC_SR & PMC_SR_MCKRDY) )
   80250:	461a      	mov	r2, r3
   80252:	6e93      	ldr	r3, [r2, #104]	; 0x68
   80254:	f013 0f08 	tst.w	r3, #8
   80258:	d0fb      	beq.n	80252 <SystemInit+0x66>
  {
  }

  /* Switch to PLLA */
  PMC->PMC_MCKR = SYS_BOARD_MCKR;
   8025a:	2212      	movs	r2, #18
   8025c:	4b06      	ldr	r3, [pc, #24]	; (80278 <SystemInit+0x8c>)
   8025e:	631a      	str	r2, [r3, #48]	; 0x30
  while ( !(PMC->PMC_SR & PMC_SR_MCKRDY) )
   80260:	461a      	mov	r2, r3
   80262:	6e93      	ldr	r3, [r2, #104]	; 0x68
   80264:	f013 0f08 	tst.w	r3, #8
   80268:	d0fb      	beq.n	80262 <SystemInit+0x76>
  {
  }

  SystemCoreClock = CHIP_FREQ_CPU_MAX;
   8026a:	4a07      	ldr	r2, [pc, #28]	; (80288 <SystemInit+0x9c>)
   8026c:	4b07      	ldr	r3, [pc, #28]	; (8028c <SystemInit+0xa0>)
   8026e:	601a      	str	r2, [r3, #0]
   80270:	4770      	bx	lr
   80272:	bf00      	nop
   80274:	400e0a00 	.word	0x400e0a00
   80278:	400e0600 	.word	0x400e0600
   8027c:	00370809 	.word	0x00370809
   80280:	01370809 	.word	0x01370809
   80284:	200d3f01 	.word	0x200d3f01
   80288:	0501bd00 	.word	0x0501bd00
   8028c:	20000000 	.word	0x20000000

00080290 <main>:

#include "sam.h"


int main(void)
{
   80290:	b508      	push	{r3, lr}
    /* Initialize the SAM system */
    SystemInit(); //from system_sam3a.c, see file for explanation.
   80292:	4b01      	ldr	r3, [pc, #4]	; (80298 <main+0x8>)
   80294:	4798      	blx	r3
   80296:	e7fe      	b.n	80296 <main+0x6>
   80298:	000801ed 	.word	0x000801ed

0008029c <__libc_init_array>:
   8029c:	b570      	push	{r4, r5, r6, lr}
   8029e:	4e0f      	ldr	r6, [pc, #60]	; (802dc <__libc_init_array+0x40>)
   802a0:	4d0f      	ldr	r5, [pc, #60]	; (802e0 <__libc_init_array+0x44>)
   802a2:	1b76      	subs	r6, r6, r5
   802a4:	10b6      	asrs	r6, r6, #2
   802a6:	bf18      	it	ne
   802a8:	2400      	movne	r4, #0
   802aa:	d005      	beq.n	802b8 <__libc_init_array+0x1c>
   802ac:	3401      	adds	r4, #1
   802ae:	f855 3b04 	ldr.w	r3, [r5], #4
   802b2:	4798      	blx	r3
   802b4:	42a6      	cmp	r6, r4
   802b6:	d1f9      	bne.n	802ac <__libc_init_array+0x10>
   802b8:	4e0a      	ldr	r6, [pc, #40]	; (802e4 <__libc_init_array+0x48>)
   802ba:	4d0b      	ldr	r5, [pc, #44]	; (802e8 <__libc_init_array+0x4c>)
   802bc:	f000 f8a8 	bl	80410 <_init>
   802c0:	1b76      	subs	r6, r6, r5
   802c2:	10b6      	asrs	r6, r6, #2
   802c4:	bf18      	it	ne
   802c6:	2400      	movne	r4, #0
   802c8:	d006      	beq.n	802d8 <__libc_init_array+0x3c>
   802ca:	3401      	adds	r4, #1
   802cc:	f855 3b04 	ldr.w	r3, [r5], #4
   802d0:	4798      	blx	r3
   802d2:	42a6      	cmp	r6, r4
   802d4:	d1f9      	bne.n	802ca <__libc_init_array+0x2e>
   802d6:	bd70      	pop	{r4, r5, r6, pc}
   802d8:	bd70      	pop	{r4, r5, r6, pc}
   802da:	bf00      	nop
   802dc:	0008041c 	.word	0x0008041c
   802e0:	0008041c 	.word	0x0008041c
   802e4:	00080424 	.word	0x00080424
   802e8:	0008041c 	.word	0x0008041c

000802ec <register_fini>:
   802ec:	4b02      	ldr	r3, [pc, #8]	; (802f8 <register_fini+0xc>)
   802ee:	b113      	cbz	r3, 802f6 <register_fini+0xa>
   802f0:	4802      	ldr	r0, [pc, #8]	; (802fc <register_fini+0x10>)
   802f2:	f000 b805 	b.w	80300 <atexit>
   802f6:	4770      	bx	lr
   802f8:	00000000 	.word	0x00000000
   802fc:	0008030d 	.word	0x0008030d

00080300 <atexit>:
   80300:	2300      	movs	r3, #0
   80302:	4601      	mov	r1, r0
   80304:	461a      	mov	r2, r3
   80306:	4618      	mov	r0, r3
   80308:	f000 b81e 	b.w	80348 <__register_exitproc>

0008030c <__libc_fini_array>:
   8030c:	b538      	push	{r3, r4, r5, lr}
   8030e:	4c0a      	ldr	r4, [pc, #40]	; (80338 <__libc_fini_array+0x2c>)
   80310:	4d0a      	ldr	r5, [pc, #40]	; (8033c <__libc_fini_array+0x30>)
   80312:	1b64      	subs	r4, r4, r5
   80314:	10a4      	asrs	r4, r4, #2
   80316:	d00a      	beq.n	8032e <__libc_fini_array+0x22>
   80318:	f104 4380 	add.w	r3, r4, #1073741824	; 0x40000000
   8031c:	3b01      	subs	r3, #1
   8031e:	eb05 0583 	add.w	r5, r5, r3, lsl #2
   80322:	3c01      	subs	r4, #1
   80324:	f855 3904 	ldr.w	r3, [r5], #-4
   80328:	4798      	blx	r3
   8032a:	2c00      	cmp	r4, #0
   8032c:	d1f9      	bne.n	80322 <__libc_fini_array+0x16>
   8032e:	e8bd 4038 	ldmia.w	sp!, {r3, r4, r5, lr}
   80332:	f000 b877 	b.w	80424 <_fini>
   80336:	bf00      	nop
   80338:	00080434 	.word	0x00080434
   8033c:	00080430 	.word	0x00080430

00080340 <__retarget_lock_acquire_recursive>:
   80340:	4770      	bx	lr
   80342:	bf00      	nop

00080344 <__retarget_lock_release_recursive>:
   80344:	4770      	bx	lr
   80346:	bf00      	nop

00080348 <__register_exitproc>:
   80348:	e92d 43f8 	stmdb	sp!, {r3, r4, r5, r6, r7, r8, r9, lr}
   8034c:	4d2c      	ldr	r5, [pc, #176]	; (80400 <__register_exitproc+0xb8>)
   8034e:	4606      	mov	r6, r0
   80350:	6828      	ldr	r0, [r5, #0]
   80352:	4698      	mov	r8, r3
   80354:	460f      	mov	r7, r1
   80356:	4691      	mov	r9, r2
   80358:	f7ff fff2 	bl	80340 <__retarget_lock_acquire_recursive>
   8035c:	4b29      	ldr	r3, [pc, #164]	; (80404 <__register_exitproc+0xbc>)
   8035e:	681c      	ldr	r4, [r3, #0]
   80360:	f8d4 3148 	ldr.w	r3, [r4, #328]	; 0x148
   80364:	2b00      	cmp	r3, #0
   80366:	d03e      	beq.n	803e6 <__register_exitproc+0x9e>
   80368:	685a      	ldr	r2, [r3, #4]
   8036a:	2a1f      	cmp	r2, #31
   8036c:	dc1c      	bgt.n	803a8 <__register_exitproc+0x60>
   8036e:	f102 0e01 	add.w	lr, r2, #1
   80372:	b176      	cbz	r6, 80392 <__register_exitproc+0x4a>
   80374:	2101      	movs	r1, #1
   80376:	eb03 0482 	add.w	r4, r3, r2, lsl #2
   8037a:	f8c4 9088 	str.w	r9, [r4, #136]	; 0x88
   8037e:	f8d3 0188 	ldr.w	r0, [r3, #392]	; 0x188
   80382:	4091      	lsls	r1, r2
   80384:	4308      	orrs	r0, r1
   80386:	2e02      	cmp	r6, #2
   80388:	f8c3 0188 	str.w	r0, [r3, #392]	; 0x188
   8038c:	f8c4 8108 	str.w	r8, [r4, #264]	; 0x108
   80390:	d023      	beq.n	803da <__register_exitproc+0x92>
   80392:	3202      	adds	r2, #2
   80394:	f8c3 e004 	str.w	lr, [r3, #4]
   80398:	6828      	ldr	r0, [r5, #0]
   8039a:	f843 7022 	str.w	r7, [r3, r2, lsl #2]
   8039e:	f7ff ffd1 	bl	80344 <__retarget_lock_release_recursive>
   803a2:	2000      	movs	r0, #0
   803a4:	e8bd 83f8 	ldmia.w	sp!, {r3, r4, r5, r6, r7, r8, r9, pc}
   803a8:	4b17      	ldr	r3, [pc, #92]	; (80408 <__register_exitproc+0xc0>)
   803aa:	b30b      	cbz	r3, 803f0 <__register_exitproc+0xa8>
   803ac:	f44f 70c8 	mov.w	r0, #400	; 0x190
   803b0:	f3af 8000 	nop.w
   803b4:	4603      	mov	r3, r0
   803b6:	b1d8      	cbz	r0, 803f0 <__register_exitproc+0xa8>
   803b8:	2000      	movs	r0, #0
   803ba:	f8d4 1148 	ldr.w	r1, [r4, #328]	; 0x148
   803be:	f04f 0e01 	mov.w	lr, #1
   803c2:	6058      	str	r0, [r3, #4]
   803c4:	6019      	str	r1, [r3, #0]
   803c6:	4602      	mov	r2, r0
   803c8:	f8c4 3148 	str.w	r3, [r4, #328]	; 0x148
   803cc:	f8c3 0188 	str.w	r0, [r3, #392]	; 0x188
   803d0:	f8c3 018c 	str.w	r0, [r3, #396]	; 0x18c
   803d4:	2e00      	cmp	r6, #0
   803d6:	d0dc      	beq.n	80392 <__register_exitproc+0x4a>
   803d8:	e7cc      	b.n	80374 <__register_exitproc+0x2c>
   803da:	f8d3 018c 	ldr.w	r0, [r3, #396]	; 0x18c
   803de:	4301      	orrs	r1, r0
   803e0:	f8c3 118c 	str.w	r1, [r3, #396]	; 0x18c
   803e4:	e7d5      	b.n	80392 <__register_exitproc+0x4a>
   803e6:	f504 73a6 	add.w	r3, r4, #332	; 0x14c
   803ea:	f8c4 3148 	str.w	r3, [r4, #328]	; 0x148
   803ee:	e7bb      	b.n	80368 <__register_exitproc+0x20>
   803f0:	6828      	ldr	r0, [r5, #0]
   803f2:	f7ff ffa7 	bl	80344 <__retarget_lock_release_recursive>
   803f6:	f04f 30ff 	mov.w	r0, #4294967295
   803fa:	e8bd 83f8 	ldmia.w	sp!, {r3, r4, r5, r6, r7, r8, r9, pc}
   803fe:	bf00      	nop
   80400:	20000430 	.word	0x20000430
   80404:	0008040c 	.word	0x0008040c
   80408:	00000000 	.word	0x00000000

0008040c <_global_impure_ptr>:
   8040c:	20000008                                ... 

00080410 <_init>:
   80410:	b5f8      	push	{r3, r4, r5, r6, r7, lr}
   80412:	bf00      	nop
   80414:	bcf8      	pop	{r3, r4, r5, r6, r7}
   80416:	bc08      	pop	{r3}
   80418:	469e      	mov	lr, r3
   8041a:	4770      	bx	lr

0008041c <__init_array_start>:
   8041c:	000802ed 	.word	0x000802ed

00080420 <__frame_dummy_init_array_entry>:
   80420:	00080119                                ....

00080424 <_fini>:
   80424:	b5f8      	push	{r3, r4, r5, r6, r7, lr}
   80426:	bf00      	nop
   80428:	bcf8      	pop	{r3, r4, r5, r6, r7}
   8042a:	bc08      	pop	{r3}
   8042c:	469e      	mov	lr, r3
   8042e:	4770      	bx	lr

00080430 <__fini_array_start>:
   80430:	000800f5 	.word	0x000800f5
